target datalayout = "e-m:e-p270:32:32-p271:32:32-p272:64:64-i64:64-i128:128-f80:128-n8:16:32:64-S128"
target triple = "x86_64-pc-linux-gnu"

%struct.H5FD_onion_history_t = type { i8, i64, ptr, i32 }
%struct.H5FD_onion_record_loc_t = type { i64, i64, i32 }

@H5FD_init_g = external global i8, align 1
@H5_libterm_g = external global i8, align 1
@.str.13 = private unnamed_addr constant [5 x i8] c"OWHS\00", align 1

; Function Attrs: nounwind uwtable
define i64 @H5FD__onion_history_encode(ptr noundef %0, ptr noundef %1, ptr noundef %2) #0 {
  %4 = alloca ptr, align 8
  %5 = alloca ptr, align 8
  %6 = alloca ptr, align 8
  %7 = alloca ptr, align 8
  %8 = alloca i64, align 8
  %9 = alloca i64, align 8
  %10 = alloca i64, align 8
  %11 = alloca ptr, align 8
  %12 = alloca i64, align 8
  %13 = alloca ptr, align 8
  %14 = alloca i64, align 8
  %15 = alloca i64, align 8
  %16 = alloca i64, align 8
  %17 = alloca i64, align 8
  %18 = alloca ptr, align 8
  %19 = alloca i64, align 8
  %20 = alloca i64, align 8
  %21 = alloca ptr, align 8
  store ptr %0, ptr %4, align 8, !tbaa !3
  store ptr %1, ptr %5, align 8, !tbaa !12
  store ptr %2, ptr %6, align 8, !tbaa !36
  call void @llvm.lifetime.start.p0(i64 8, ptr %7) #9
  %22 = load ptr, ptr %5, align 8, !tbaa !12
  store ptr %22, ptr %7, align 8, !tbaa !12
  call void @llvm.lifetime.start.p0(i64 8, ptr %8) #9
  %23 = load ptr, ptr %4, align 8, !tbaa !3
  %24 = getelementptr inbounds nuw %struct.H5FD_onion_history_t, ptr %23, i32 0, i32 0
  %25 = load i8, ptr %24, align 8, !tbaa !38
  %26 = zext i8 %25 to i32
  %27 = zext i32 %26 to i64
  store i64 %27, ptr %8, align 8, !tbaa !10
  %28 = load i8, ptr @H5FD_init_g, align 1, !tbaa !16, !range !18, !noundef !19
  %29 = trunc i8 %28 to i1
  br i1 %29, label %34, label %30

30:                                               ; preds = %3
  %31 = load i8, ptr @H5_libterm_g, align 1, !tbaa !16, !range !18, !noundef !19
  %32 = trunc i8 %31 to i1
  %33 = xor i1 %32, true
  br label %34

34:                                               ; preds = %30, %3
  %35 = phi i1 [ true, %3 ], [ %33, %30 ]
  %36 = xor i1 %35, true
  %37 = xor i1 %36, true
  %38 = zext i1 %37 to i32
  %39 = sext i32 %38 to i64
  %40 = call i64 @llvm.expect.i64(i64 %39, i64 1)
  %41 = icmp ne i64 %40, 0
  br i1 %41, label %42, label %289

42:                                               ; preds = %34
  %43 = load ptr, ptr %7, align 8, !tbaa !12
  call void @llvm.memcpy.p0.p0.i64(ptr align 1 %43, ptr align 1 @.str.13, i64 4, i1 false)
  %44 = load ptr, ptr %7, align 8, !tbaa !12
  %45 = getelementptr inbounds i8, ptr %44, i64 4
  store ptr %45, ptr %7, align 8, !tbaa !12
  br label %46

46:                                               ; preds = %42
  %47 = load i64, ptr %8, align 8, !tbaa !10
  %48 = and i64 %47, 255
  %49 = trunc i64 %48 to i8
  %50 = load ptr, ptr %7, align 8, !tbaa !12
  store i8 %49, ptr %50, align 1, !tbaa !25
  %51 = load ptr, ptr %7, align 8, !tbaa !12
  %52 = getelementptr inbounds nuw i8, ptr %51, i32 1
  store ptr %52, ptr %7, align 8, !tbaa !12
  %53 = load i64, ptr %8, align 8, !tbaa !10
  %54 = lshr i64 %53, 8
  %55 = and i64 %54, 255
  %56 = trunc i64 %55 to i8
  %57 = load ptr, ptr %7, align 8, !tbaa !12
  store i8 %56, ptr %57, align 1, !tbaa !25
  %58 = load ptr, ptr %7, align 8, !tbaa !12
  %59 = getelementptr inbounds nuw i8, ptr %58, i32 1
  store ptr %59, ptr %7, align 8, !tbaa !12
  %60 = load i64, ptr %8, align 8, !tbaa !10
  %61 = lshr i64 %60, 16
  %62 = and i64 %61, 255
  %63 = trunc i64 %62 to i8
  %64 = load ptr, ptr %7, align 8, !tbaa !12
  store i8 %63, ptr %64, align 1, !tbaa !25
  %65 = load ptr, ptr %7, align 8, !tbaa !12
  %66 = getelementptr inbounds nuw i8, ptr %65, i32 1
  store ptr %66, ptr %7, align 8, !tbaa !12
  %67 = load i64, ptr %8, align 8, !tbaa !10
  %68 = lshr i64 %67, 24
  %69 = and i64 %68, 255
  %70 = trunc i64 %69 to i8
  %71 = load ptr, ptr %7, align 8, !tbaa !12
  store i8 %70, ptr %71, align 1, !tbaa !25
  %72 = load ptr, ptr %7, align 8, !tbaa !12
  %73 = getelementptr inbounds nuw i8, ptr %72, i32 1
  store ptr %73, ptr %7, align 8, !tbaa !12
  br label %74

74:                                               ; preds = %46
  br label %75

75:                                               ; preds = %74
  br label %76

76:                                               ; preds = %75
  call void @llvm.lifetime.start.p0(i64 8, ptr %9) #9
  %77 = load ptr, ptr %4, align 8, !tbaa !3
  %78 = getelementptr inbounds nuw %struct.H5FD_onion_history_t, ptr %77, i32 0, i32 1
  %79 = load i64, ptr %78, align 8, !tbaa !24
  store i64 %79, ptr %9, align 8, !tbaa !10
  call void @llvm.lifetime.start.p0(i64 8, ptr %10) #9
  call void @llvm.lifetime.start.p0(i64 8, ptr %11) #9
  %80 = load ptr, ptr %7, align 8, !tbaa !12
  store ptr %80, ptr %11, align 8, !tbaa !12
  store i64 0, ptr %10, align 8, !tbaa !10
  br label %81

81:                                               ; preds = %90, %76
  %82 = load i64, ptr %10, align 8, !tbaa !10
  %83 = icmp ult i64 %82, 8
  br i1 %83, label %84, label %95

84:                                               ; preds = %81
  %85 = load i64, ptr %9, align 8, !tbaa !10
  %86 = and i64 %85, 255
  %87 = trunc i64 %86 to i8
  %88 = load ptr, ptr %11, align 8, !tbaa !12
  %89 = getelementptr inbounds nuw i8, ptr %88, i32 1
  store ptr %89, ptr %11, align 8, !tbaa !12
  store i8 %87, ptr %88, align 1, !tbaa !25
  br label %90

90:                                               ; preds = %84
  %91 = load i64, ptr %10, align 8, !tbaa !10
  %92 = add i64 %91, 1
  store i64 %92, ptr %10, align 8, !tbaa !10
  %93 = load i64, ptr %9, align 8, !tbaa !10
  %94 = lshr i64 %93, 8
  store i64 %94, ptr %9, align 8, !tbaa !10
  br label %81, !llvm.loop !39

95:                                               ; preds = %81
  br label %96

96:                                               ; preds = %102, %95
  %97 = load i64, ptr %10, align 8, !tbaa !10
  %98 = icmp ult i64 %97, 8
  br i1 %98, label %99, label %105

99:                                               ; preds = %96
  %100 = load ptr, ptr %11, align 8, !tbaa !12
  %101 = getelementptr inbounds nuw i8, ptr %100, i32 1
  store ptr %101, ptr %11, align 8, !tbaa !12
  store i8 0, ptr %100, align 1, !tbaa !25
  br label %102

102:                                              ; preds = %99
  %103 = load i64, ptr %10, align 8, !tbaa !10
  %104 = add i64 %103, 1
  store i64 %104, ptr %10, align 8, !tbaa !10
  br label %96, !llvm.loop !40

105:                                              ; preds = %96
  %106 = load ptr, ptr %7, align 8, !tbaa !12
  %107 = getelementptr inbounds i8, ptr %106, i64 8
  store ptr %107, ptr %7, align 8, !tbaa !12
  call void @llvm.lifetime.end.p0(i64 8, ptr %11) #9
  call void @llvm.lifetime.end.p0(i64 8, ptr %10) #9
  call void @llvm.lifetime.end.p0(i64 8, ptr %9) #9
  br label %108

108:                                              ; preds = %105
  br label %109

109:                                              ; preds = %108
  %110 = load ptr, ptr %4, align 8, !tbaa !3
  %111 = getelementptr inbounds nuw %struct.H5FD_onion_history_t, ptr %110, i32 0, i32 1
  %112 = load i64, ptr %111, align 8, !tbaa !24
  %113 = icmp ugt i64 %112, 0
  br i1 %113, label %114, label %246

114:                                              ; preds = %109
  call void @llvm.lifetime.start.p0(i64 8, ptr %12) #9
  store i64 0, ptr %12, align 8, !tbaa !10
  br label %115

115:                                              ; preds = %242, %114
  %116 = load i64, ptr %12, align 8, !tbaa !10
  %117 = load ptr, ptr %4, align 8, !tbaa !3
  %118 = getelementptr inbounds nuw %struct.H5FD_onion_history_t, ptr %117, i32 0, i32 1
  %119 = load i64, ptr %118, align 8, !tbaa !24
  %120 = icmp ult i64 %116, %119
  br i1 %120, label %122, label %121

121:                                              ; preds = %115
  call void @llvm.lifetime.end.p0(i64 8, ptr %12) #9
  br label %245

122:                                              ; preds = %115
  call void @llvm.lifetime.start.p0(i64 8, ptr %13) #9
  %123 = load ptr, ptr %4, align 8, !tbaa !3
  %124 = getelementptr inbounds nuw %struct.H5FD_onion_history_t, ptr %123, i32 0, i32 2
  %125 = load ptr, ptr %124, align 8, !tbaa !20
  %126 = load i64, ptr %12, align 8, !tbaa !10
  %127 = getelementptr inbounds nuw %struct.H5FD_onion_record_loc_t, ptr %125, i64 %126
  store ptr %127, ptr %13, align 8, !tbaa !28
  call void @llvm.lifetime.start.p0(i64 8, ptr %14) #9
  call void @llvm.lifetime.start.p0(i64 8, ptr %15) #9
  br label %128

128:                                              ; preds = %122
  %129 = load ptr, ptr %13, align 8, !tbaa !28
  %130 = getelementptr inbounds nuw %struct.H5FD_onion_record_loc_t, ptr %129, i32 0, i32 0
  %131 = load i64, ptr %130, align 8, !tbaa !30
  store i64 %131, ptr %14, align 8, !tbaa !10
  br label %132

132:                                              ; preds = %128
  br label %133

133:                                              ; preds = %132
  br label %134

134:                                              ; preds = %133
  %135 = load ptr, ptr %13, align 8, !tbaa !28
  %136 = getelementptr inbounds nuw %struct.H5FD_onion_record_loc_t, ptr %135, i32 0, i32 1
  %137 = load i64, ptr %136, align 8, !tbaa !33
  store i64 %137, ptr %15, align 8, !tbaa !10
  br label %138

138:                                              ; preds = %134
  br label %139

139:                                              ; preds = %138
  br label %140

140:                                              ; preds = %139
  call void @llvm.lifetime.start.p0(i64 8, ptr %16) #9
  %141 = load i64, ptr %14, align 8, !tbaa !10
  store i64 %141, ptr %16, align 8, !tbaa !10
  call void @llvm.lifetime.start.p0(i64 8, ptr %17) #9
  call void @llvm.lifetime.start.p0(i64 8, ptr %18) #9
  %142 = load ptr, ptr %7, align 8, !tbaa !12
  store ptr %142, ptr %18, align 8, !tbaa !12
  store i64 0, ptr %17, align 8, !tbaa !10
  br label %143

143:                                              ; preds = %152, %140
  %144 = load i64, ptr %17, align 8, !tbaa !10
  %145 = icmp ult i64 %144, 8
  br i1 %145, label %146, label %157

146:                                              ; preds = %143
  %147 = load i64, ptr %16, align 8, !tbaa !10
  %148 = and i64 %147, 255
  %149 = trunc i64 %148 to i8
  %150 = load ptr, ptr %18, align 8, !tbaa !12
  %151 = getelementptr inbounds nuw i8, ptr %150, i32 1
  store ptr %151, ptr %18, align 8, !tbaa !12
  store i8 %149, ptr %150, align 1, !tbaa !25
  br label %152

152:                                              ; preds = %146
  %153 = load i64, ptr %17, align 8, !tbaa !10
  %154 = add i64 %153, 1
  store i64 %154, ptr %17, align 8, !tbaa !10
  %155 = load i64, ptr %16, align 8, !tbaa !10
  %156 = lshr i64 %155, 8
  store i64 %156, ptr %16, align 8, !tbaa !10
  br label %143, !llvm.loop !41

157:                                              ; preds = %143
  br label %158

158:                                              ; preds = %164, %157
  %159 = load i64, ptr %17, align 8, !tbaa !10
  %160 = icmp ult i64 %159, 8
  br i1 %160, label %161, label %167

161:                                              ; preds = %158
  %162 = load ptr, ptr %18, align 8, !tbaa !12
  %163 = getelementptr inbounds nuw i8, ptr %162, i32 1
  store ptr %163, ptr %18, align 8, !tbaa !12
  store i8 0, ptr %162, align 1, !tbaa !25
  br label %164

164:                                              ; preds = %161
  %165 = load i64, ptr %17, align 8, !tbaa !10
  %166 = add i64 %165, 1
  store i64 %166, ptr %17, align 8, !tbaa !10
  br label %158, !llvm.loop !42

167:                                              ; preds = %158
  %168 = load ptr, ptr %7, align 8, !tbaa !12
  %169 = getelementptr inbounds i8, ptr %168, i64 8
  store ptr %169, ptr %7, align 8, !tbaa !12
  call void @llvm.lifetime.end.p0(i64 8, ptr %18) #9
  call void @llvm.lifetime.end.p0(i64 8, ptr %17) #9
  call void @llvm.lifetime.end.p0(i64 8, ptr %16) #9
  br label %170

170:                                              ; preds = %167
  br label %171

171:                                              ; preds = %170
  br label %172

172:                                              ; preds = %171
  call void @llvm.lifetime.start.p0(i64 8, ptr %19) #9
  %173 = load i64, ptr %15, align 8, !tbaa !10
  store i64 %173, ptr %19, align 8, !tbaa !10
  call void @llvm.lifetime.start.p0(i64 8, ptr %20) #9
  call void @llvm.lifetime.start.p0(i64 8, ptr %21) #9
  %174 = load ptr, ptr %7, align 8, !tbaa !12
  store ptr %174, ptr %21, align 8, !tbaa !12
  store i64 0, ptr %20, align 8, !tbaa !10
  br label %175

175:                                              ; preds = %184, %172
  %176 = load i64, ptr %20, align 8, !tbaa !10
  %177 = icmp ult i64 %176, 8
  br i1 %177, label %178, label %189

178:                                              ; preds = %175
  %179 = load i64, ptr %19, align 8, !tbaa !10
  %180 = and i64 %179, 255
  %181 = trunc i64 %180 to i8
  %182 = load ptr, ptr %21, align 8, !tbaa !12
  %183 = getelementptr inbounds nuw i8, ptr %182, i32 1
  store ptr %183, ptr %21, align 8, !tbaa !12
  store i8 %181, ptr %182, align 1, !tbaa !25
  br label %184

184:                                              ; preds = %178
  %185 = load i64, ptr %20, align 8, !tbaa !10
  %186 = add i64 %185, 1
  store i64 %186, ptr %20, align 8, !tbaa !10
  %187 = load i64, ptr %19, align 8, !tbaa !10
  %188 = lshr i64 %187, 8
  store i64 %188, ptr %19, align 8, !tbaa !10
  br label %175, !llvm.loop !43

189:                                              ; preds = %175
  br label %190

190:                                              ; preds = %196, %189
  %191 = load i64, ptr %20, align 8, !tbaa !10
  %192 = icmp ult i64 %191, 8
  br i1 %192, label %193, label %199

193:                                              ; preds = %190
  %194 = load ptr, ptr %21, align 8, !tbaa !12
  %195 = getelementptr inbounds nuw i8, ptr %194, i32 1
  store ptr %195, ptr %21, align 8, !tbaa !12
  store i8 0, ptr %194, align 1, !tbaa !25
  br label %196

196:                                              ; preds = %193
  %197 = load i64, ptr %20, align 8, !tbaa !10
  %198 = add i64 %197, 1
  store i64 %198, ptr %20, align 8, !tbaa !10
  br label %190, !llvm.loop !44

199:                                              ; preds = %190
  %200 = load ptr, ptr %7, align 8, !tbaa !12
  %201 = getelementptr inbounds i8, ptr %200, i64 8
  store ptr %201, ptr %7, align 8, !tbaa !12
  call void @llvm.lifetime.end.p0(i64 8, ptr %21) #9
  call void @llvm.lifetime.end.p0(i64 8, ptr %20) #9
  call void @llvm.lifetime.end.p0(i64 8, ptr %19) #9
  br label %202

202:                                              ; preds = %199
  br label %203

203:                                              ; preds = %202
  br label %204

204:                                              ; preds = %203
  %205 = load ptr, ptr %13, align 8, !tbaa !28
  %206 = getelementptr inbounds nuw %struct.H5FD_onion_record_loc_t, ptr %205, i32 0, i32 2
  %207 = load i32, ptr %206, align 8, !tbaa !34
  %208 = and i32 %207, 255
  %209 = trunc i32 %208 to i8
  %210 = load ptr, ptr %7, align 8, !tbaa !12
  store i8 %209, ptr %210, align 1, !tbaa !25
  %211 = load ptr, ptr %7, align 8, !tbaa !12
  %212 = getelementptr inbounds nuw i8, ptr %211, i32 1
  store ptr %212, ptr %7, align 8, !tbaa !12
  %213 = load ptr, ptr %13, align 8, !tbaa !28
  %214 = getelementptr inbounds nuw %struct.H5FD_onion_record_loc_t, ptr %213, i32 0, i32 2
  %215 = load i32, ptr %214, align 8, !tbaa !34
  %216 = lshr i32 %215, 8
  %217 = and i32 %216, 255
  %218 = trunc i32 %217 to i8
  %219 = load ptr, ptr %7, align 8, !tbaa !12
  store i8 %218, ptr %219, align 1, !tbaa !25
  %220 = load ptr, ptr %7, align 8, !tbaa !12
  %221 = getelementptr inbounds nuw i8, ptr %220, i32 1
  store ptr %221, ptr %7, align 8, !tbaa !12
  %222 = load ptr, ptr %13, align 8, !tbaa !28
  %223 = getelementptr inbounds nuw %struct.H5FD_onion_record_loc_t, ptr %222, i32 0, i32 2
  %224 = load i32, ptr %223, align 8, !tbaa !34
  %225 = lshr i32 %224, 16
  %226 = and i32 %225, 255
  %227 = trunc i32 %226 to i8
  %228 = load ptr, ptr %7, align 8, !tbaa !12
  store i8 %227, ptr %228, align 1, !tbaa !25
  %229 = load ptr, ptr %7, align 8, !tbaa !12
  %230 = getelementptr inbounds nuw i8, ptr %229, i32 1
  store ptr %230, ptr %7, align 8, !tbaa !12
  %231 = load ptr, ptr %13, align 8, !tbaa !28
  %232 = getelementptr inbounds nuw %struct.H5FD_onion_record_loc_t, ptr %231, i32 0, i32 2
  %233 = load i32, ptr %232, align 8, !tbaa !34
  %234 = lshr i32 %233, 24
  %235 = and i32 %234, 255
  %236 = trunc i32 %235 to i8
  %237 = load ptr, ptr %7, align 8, !tbaa !12
  store i8 %236, ptr %237, align 1, !tbaa !25
  %238 = load ptr, ptr %7, align 8, !tbaa !12
  %239 = getelementptr inbounds nuw i8, ptr %238, i32 1
  store ptr %239, ptr %7, align 8, !tbaa !12
  br label %240

240:                                              ; preds = %204
  br label %241

241:                                              ; preds = %240
  call void @llvm.lifetime.end.p0(i64 8, ptr %15) #9
  call void @llvm.lifetime.end.p0(i64 8, ptr %14) #9
  call void @llvm.lifetime.end.p0(i64 8, ptr %13) #9
  br label %242

242:                                              ; preds = %241
  %243 = load i64, ptr %12, align 8, !tbaa !10
  %244 = add i64 %243, 1
  store i64 %244, ptr %12, align 8, !tbaa !10
  br label %115, !llvm.loop !45

245:                                              ; preds = %121
  br label %246

246:                                              ; preds = %245, %109
  %247 = load ptr, ptr %5, align 8, !tbaa !12
  %248 = load ptr, ptr %7, align 8, !tbaa !12
  %249 = load ptr, ptr %5, align 8, !tbaa !12
  %250 = ptrtoint ptr %248 to i64
  %251 = ptrtoint ptr %249 to i64
  %252 = sub i64 %250, %251
  %253 = call i32 @H5_checksum_fletcher32(ptr noundef %247, i64 noundef %252)
  %254 = load ptr, ptr %6, align 8, !tbaa !36
  store i32 %253, ptr %254, align 4, !tbaa !14
  br label %255

255:                                              ; preds = %246
  %256 = load ptr, ptr %6, align 8, !tbaa !36
  %257 = load i32, ptr %256, align 4, !tbaa !14
  %258 = and i32 %257, 255
  %259 = trunc i32 %258 to i8
  %260 = load ptr, ptr %7, align 8, !tbaa !12
  store i8 %259, ptr %260, align 1, !tbaa !25
  %261 = load ptr, ptr %7, align 8, !tbaa !12
  %262 = getelementptr inbounds nuw i8, ptr %261, i32 1
  store ptr %262, ptr %7, align 8, !tbaa !12
  %263 = load ptr, ptr %6, align 8, !tbaa !36
  %264 = load i32, ptr %263, align 4, !tbaa !14
  %265 = lshr i32 %264, 8
  %266 = and i32 %265, 255
  %267 = trunc i32 %266 to i8
  %268 = load ptr, ptr %7, align 8, !tbaa !12
  store i8 %267, ptr %268, align 1, !tbaa !25
  %269 = load ptr, ptr %7, align 8, !tbaa !12
  %270 = getelementptr inbounds nuw i8, ptr %269, i32 1
  store ptr %270, ptr %7, align 8, !tbaa !12
  %271 = load ptr, ptr %6, align 8, !tbaa !36
  %272 = load i32, ptr %271, align 4, !tbaa !14
  %273 = lshr i32 %272, 16
  %274 = and i32 %273, 255
  %275 = trunc i32 %274 to i8
  %276 = load ptr, ptr %7, align 8, !tbaa !12
  store i8 %275, ptr %276, align 1, !tbaa !25
  %277 = load ptr, ptr %7, align 8, !tbaa !12
  %278 = getelementptr inbounds nuw i8, ptr %277, i32 1
  store ptr %278, ptr %7, align 8, !tbaa !12
  %279 = load ptr, ptr %6, align 8, !tbaa !36
  %280 = load i32, ptr %279, align 4, !tbaa !14
  %281 = lshr i32 %280, 24
  %282 = and i32 %281, 255
  %283 = trunc i32 %282 to i8
  %284 = load ptr, ptr %7, align 8, !tbaa !12
  store i8 %283, ptr %284, align 1, !tbaa !25
  %285 = load ptr, ptr %7, align 8, !tbaa !12
  %286 = getelementptr inbounds nuw i8, ptr %285, i32 1
  store ptr %286, ptr %7, align 8, !tbaa !12
  br label %287

287:                                              ; preds = %255
  br label %288

288:                                              ; preds = %287
  br label %289

289:                                              ; preds = %288, %34
  %290 = load ptr, ptr %7, align 8, !tbaa !12
  %291 = load ptr, ptr %5, align 8, !tbaa !12
  %292 = ptrtoint ptr %290 to i64
  %293 = ptrtoint ptr %291 to i64
  %294 = sub i64 %292, %293
  call void @llvm.lifetime.end.p0(i64 8, ptr %8) #9
  call void @llvm.lifetime.end.p0(i64 8, ptr %7) #9
  ret i64 %294
}