; Function Attrs: nounwind uwtable
define i64 @H5FD__onion_history_encode(ptr noundef readonly captures(none) %0, ptr noundef %1, ptr noundef captures(none) %2) local_unnamed_addr #0 {
  %4 = load i8, ptr @H5FD_init_g, align 1, !tbaa !3, !range !7, !noundef !8
  %5 = trunc nuw i8 %4 to i1
  %6 = load i8, ptr @H5_libterm_g, align 1, !range !7
  %7 = trunc nuw i8 %6 to i1
  %8 = xor i1 %7, true
  %9 = select i1 %5, i1 true, i1 %8
  br i1 %9, label %10, label %._crit_edge, !prof !9

._crit_edge:                                      ; preds = %3
  %.pre = ptrtoint ptr %1 to i64
  br label %85

10:                                               ; preds = %3
  %11 = load i8, ptr %0, align 8, !tbaa !35
  store i32 1397249871, ptr %1, align 1
  %12 = getelementptr inbounds nuw i8, ptr %1, i64 4
  store i8 %11, ptr %12, align 1, !tbaa !24
  %13 = getelementptr inbounds nuw i8, ptr %1, i64 5
  store i8 0, ptr %13, align 1, !tbaa !24
  %14 = getelementptr inbounds nuw i8, ptr %1, i64 6
  store i8 0, ptr %14, align 1, !tbaa !24
  %15 = getelementptr inbounds nuw i8, ptr %1, i64 7
  store i8 0, ptr %15, align 1, !tbaa !24
  %16 = getelementptr inbounds nuw i8, ptr %1, i64 8
  %17 = getelementptr inbounds nuw i8, ptr %0, i64 8
  %18 = load i64, ptr %17, align 8, !tbaa !18
  br label %19

19:                                               ; preds = %10, %19
  %.096104 = phi i64 [ %18, %10 ], [ %23, %19 ]
  %.097103 = phi i64 [ 0, %10 ], [ %22, %19 ]
  %.0100102 = phi ptr [ %16, %10 ], [ %21, %19 ]
  %20 = trunc i64 %.096104 to i8
  %21 = getelementptr inbounds nuw i8, ptr %.0100102, i64 1
  store i8 %20, ptr %.0100102, align 1, !tbaa !24
  %22 = add nuw nsw i64 %.097103, 1
  %23 = lshr i64 %.096104, 8
  %exitcond.not = icmp eq i64 %22, 8
  br i1 %exitcond.not, label %24, label %19, !llvm.loop !36

24:                                               ; preds = %19
  %25 = getelementptr inbounds nuw i8, ptr %1, i64 16
  %26 = load i64, ptr %17, align 8, !tbaa !18
  %.not = icmp eq i64 %26, 0
  br i1 %.not, label %.loopexit, label %.lr.ph

.lr.ph:                                           ; preds = %24
  %27 = getelementptr inbounds nuw i8, ptr %0, i64 16
  br label %28

28:                                               ; preds = %.lr.ph, %46
  %.2112 = phi ptr [ %25, %.lr.ph ], [ %63, %46 ]
  %.099111 = phi i64 [ 0, %.lr.ph ], [ %64, %46 ]
  %29 = load ptr, ptr %27, align 8, !tbaa !10
  %30 = getelementptr inbounds nuw %struct.H5FD_onion_record_loc_t, ptr %29, i64 %.099111
  %31 = load i64, ptr %30, align 8, !tbaa !29
  %32 = getelementptr inbounds nuw i8, ptr %30, i64 8
  %33 = load i64, ptr %32, align 8, !tbaa !32
  br label %34

34:                                               ; preds = %28, %34
  %.089107 = phi ptr [ %.2112, %28 ], [ %36, %34 ]
  %.091106 = phi i64 [ 0, %28 ], [ %37, %34 ]
  %.093105 = phi i64 [ %31, %28 ], [ %38, %34 ]
  %35 = trunc i64 %.093105 to i8
  %36 = getelementptr inbounds nuw i8, ptr %.089107, i64 1
  store i8 %35, ptr %.089107, align 1, !tbaa !24
  %37 = add nuw nsw i64 %.091106, 1
  %38 = lshr i64 %.093105, 8
  %exitcond114.not = icmp eq i64 %37, 8
  br i1 %exitcond114.not, label %39, label %34, !llvm.loop !37

39:                                               ; preds = %34
  %40 = getelementptr inbounds nuw i8, ptr %.2112, i64 8
  br label %41

41:                                               ; preds = %39, %41
  %.0110 = phi ptr [ %40, %39 ], [ %43, %41 ]
  %.086109 = phi i64 [ 0, %39 ], [ %44, %41 ]
  %.088108 = phi i64 [ %33, %39 ], [ %45, %41 ]
  %42 = trunc i64 %.088108 to i8
  %43 = getelementptr inbounds nuw i8, ptr %.0110, i64 1
  store i8 %42, ptr %.0110, align 1, !tbaa !24
  %44 = add nuw nsw i64 %.086109, 1
  %45 = lshr i64 %.088108, 8
  %exitcond115.not = icmp eq i64 %44, 8
  br i1 %exitcond115.not, label %46, label %41, !llvm.loop !38

46:                                               ; preds = %41
  %47 = getelementptr inbounds nuw i8, ptr %.2112, i64 16
  %48 = getelementptr inbounds nuw i8, ptr %30, i64 16
  %49 = load i32, ptr %48, align 8, !tbaa !33
  %50 = trunc i32 %49 to i8
  store i8 %50, ptr %47, align 1, !tbaa !24
  %51 = getelementptr inbounds nuw i8, ptr %.2112, i64 17
  %52 = load i32, ptr %48, align 8, !tbaa !33
  %53 = lshr i32 %52, 8
  %54 = trunc i32 %53 to i8
  store i8 %54, ptr %51, align 1, !tbaa !24
  %55 = getelementptr inbounds nuw i8, ptr %.2112, i64 18
  %56 = load i32, ptr %48, align 8, !tbaa !33
  %57 = lshr i32 %56, 16
  %58 = trunc i32 %57 to i8
  store i8 %58, ptr %55, align 1, !tbaa !24
  %59 = getelementptr inbounds nuw i8, ptr %.2112, i64 19
  %60 = load i32, ptr %48, align 8, !tbaa !33
  %61 = lshr i32 %60, 24
  %62 = trunc nuw i32 %61 to i8
  store i8 %62, ptr %59, align 1, !tbaa !24
  %63 = getelementptr inbounds nuw i8, ptr %.2112, i64 20
  %64 = add nuw i64 %.099111, 1
  %65 = load i64, ptr %17, align 8, !tbaa !18
  %66 = icmp ult i64 %64, %65
  br i1 %66, label %28, label %.loopexit, !llvm.loop !39

.loopexit:                                        ; preds = %46, %24
  %.195 = phi ptr [ %25, %24 ], [ %63, %46 ]
  %67 = ptrtoint ptr %.195 to i64
  %68 = ptrtoint ptr %1 to i64
  %69 = sub i64 %67, %68
  %70 = tail call i32 @H5_checksum_fletcher32(ptr noundef nonnull %1, i64 noundef %69) #9
  store i32 %70, ptr %2, align 4, !tbaa !23
  %71 = trunc i32 %70 to i8
  store i8 %71, ptr %.195, align 1, !tbaa !24
  %72 = getelementptr inbounds nuw i8, ptr %.195, i64 1
  %73 = load i32, ptr %2, align 4, !tbaa !23
  %74 = lshr i32 %73, 8
  %75 = trunc i32 %74 to i8
  store i8 %75, ptr %72, align 1, !tbaa !24
  %76 = getelementptr inbounds nuw i8, ptr %.195, i64 2
  %77 = load i32, ptr %2, align 4, !tbaa !23
  %78 = lshr i32 %77, 16
  %79 = trunc i32 %78 to i8
  store i8 %79, ptr %76, align 1, !tbaa !24
  %80 = getelementptr inbounds nuw i8, ptr %.195, i64 3
  %81 = load i32, ptr %2, align 4, !tbaa !23
  %82 = lshr i32 %81, 24
  %83 = trunc nuw i32 %82 to i8
  store i8 %83, ptr %80, align 1, !tbaa !24
  %84 = getelementptr inbounds nuw i8, ptr %.195, i64 4
  %.pre116 = ptrtoint ptr %84 to i64
  br label %85

85:                                               ; preds = %._crit_edge, %.loopexit
  %.pre-phi117 = phi i64 [ %.pre, %._crit_edge ], [ %.pre116, %.loopexit ]
  %.pre-phi = phi i64 [ %.pre, %._crit_edge ], [ %68, %.loopexit ]
  %86 = sub i64 %.pre-phi117, %.pre-phi
  ret i64 %86
}